target datalayout = "e-m:e-p270:32:32-p271:32:32-p272:64:64-i64:64-i128:128-f80:128-n8:16:32:64-S128"
target triple = "x86_64-unknown-linux-gnu"

%struct.ASN1_ENCODING_st = type { ptr, i64, i32 }
%struct.X509_crl_st = type { ptr, ptr, ptr, i32, i32, ptr, ptr, i32, i32, ptr, ptr, [20 x i8], ptr, ptr, ptr }
%struct.X509_crl_info_st = type { ptr, ptr, ptr, ptr, ptr, ptr, ptr, %struct.ASN1_ENCODING_st }

; Function Attrs: nounwind uwtable
define hidden i32 @X509V3_EXT_CRL_add_nconf(ptr noundef %conf, ptr noundef %ctx, ptr noundef %section, ptr noundef %crl) #0 {
entry:
  %conf.addr = alloca ptr, align 8
  %ctx.addr = alloca ptr, align 8
  %section.addr = alloca ptr, align 8
  %crl.addr = alloca ptr, align 8
  %sk = alloca ptr, align 8
  store ptr %conf, ptr %conf.addr, align 8
  store ptr %ctx, ptr %ctx.addr, align 8
  store ptr %section, ptr %section.addr, align 8
  store ptr %crl, ptr %crl.addr, align 8
  store ptr null, ptr %sk, align 8
  %0 = load ptr, ptr %crl.addr, align 8
  %tobool = icmp ne ptr %0, null
  br i1 %tobool, label %if.then, label %if.end

if.then:                                          ; preds = %entry
  %1 = load ptr, ptr %crl.addr, align 8
  %crl1 = getelementptr inbounds %struct.X509_crl_st, ptr %1, i32 0, i32 0
  %2 = load ptr, ptr %crl1, align 8
  %extensions = getelementptr inbounds %struct.X509_crl_info_st, ptr %2, i32 0, i32 6
  store ptr %extensions, ptr %sk, align 8
  br label %if.end

if.end:                                           ; preds = %if.then, %entry
  %3 = load ptr, ptr %conf.addr, align 8
  %4 = load ptr, ptr %ctx.addr, align 8
  %5 = load ptr, ptr %section.addr, align 8
  %6 = load ptr, ptr %sk, align 8
  %call = call i32 @X509V3_EXT_add_nconf_sk(ptr noundef %3, ptr noundef %4, ptr noundef %5, ptr noundef %6)
  ret i32 %call
}